ASxxxx Linker V03.00 + NoICE + sdld,  page 1.
Hexadecimal  [32-Bits]

Area                                    Addr        Size        Decimal Bytes (Attributes)
--------------------------------        ----        ----        ------- ----- ------------
.  .ABS.                            00000000    00000000 =           0. bytes (ABS,CON)

      Value  Global                              Global Defined In Module
      -----  --------------------------------   ------------------------
     00000000  .__.ABS.                           
     00000000  l__CABS                         
     00000000  l__DABS                         
     00000000  l__GSFINAL                      
     00000000  l__GSINIT                       
     00000000  l__HEADER                       
     00000000  l__HOME                         
     00000000  l__INITIALIZED                  
     00000000  l__INITIALIZER                  
     00000000  s__CABS                         
     00000000  s__DABS                         
     00000000  s__HEADER                       
     00000000  s__HEADER0                      
     0000004B  l__HEADER0                      
     00000056  l__DATA                         
     0000140D  l__CODE                         
     00004050  s__CODE                         
     0000C000  s__DATA                         
     0000C056  s__GSFINAL                      
     0000C056  s__GSINIT                       
     0000C056  s__HOME                         
     0000C056  s__INITIALIZED                  
     0000C056  s__INITIALIZER                  

ASxxxx Linker V03.00 + NoICE + sdld,  page 2.
Hexadecimal  [32-Bits]

Area                                    Addr        Size        Decimal Bytes (Attributes)
--------------------------------        ----        ----        ------- ----- ------------
_CODE                               00004050    0000140D =        5133. bytes (REL,CON)

      Value  Global                              Global Defined In Module
      -----  --------------------------------   ------------------------
     00004050  _putchar                           menu
     00004096  _displayMenu                       menu
     0000421B  _navigateMenu                      menu
     000043C1  _main                              menu
     0000467C  _Cls                               
     0000468D  _WaitKey                           
     000046AE  _vprintf                           vprintf
     000046CE  _printf                            vprintf
     000046EB  _Locate                            
     0000470A  _Screen                            
     0000472B  __divsint                          
     00004734  __divschar                         
     0000473B  __div8                             
     0000473F  __div_signexte                     
     00004743  __div16                            
     00004769  __get_remainder                    
     0000488E  __print_format                     printf_large
     0000540C  __divuint                          
     00005414  __divuchar                         
     0000541B  __divu8                            
     0000541E  __divu16                           
     0000544D  ___sdcc_call_hl                    
     0000544E  _strlen                            

ASxxxx Linker V03.00 + NoICE + sdld,  page 3.
Hexadecimal  [32-Bits]

Area                                    Addr        Size        Decimal Bytes (Attributes)
--------------------------------        ----        ----        ------- ----- ------------
_DATA                               0000C000    00000056 =          86. bytes (REL,CON)

      Value  Global                              Global Defined In Module
      -----  --------------------------------   ------------------------
     0000C000  _game                              menu
     0000C028  _mapp                              menu
     0000C050  _currentPage                       menu
     0000C052  _currentIndex                      menu
     0000C054  _totalFiles                        menu

ASxxxx Linker V03.00 + NoICE + sdld,  page 4.
Hexadecimal  [32-Bits]

Area                                    Addr        Size        Decimal Bytes (Attributes)
--------------------------------        ----        ----        ------- ----- ------------
_HEADER0                            00000000    0000004B =          75. bytes (ABS,CON)

      Value  Global                              Global Defined In Module
      -----  --------------------------------   ------------------------
     0000401D  find_rom_page_2                    

ASxxxx Linker V03.00 + NoICE + sdld,  page 5.

Files Linked                              [ module(s) ]

build\menu.rel                            [ menu ]
C:\DevArea\libraries\fusion-c\include\crt0_MSX32k_ROM4000.rel
                                          [  ]


Libraries Linked                          [ object file ]

C:\DevArea\libraries\fusion-c\lib\fusion_min_printf.lib
                                          [ cls.rel ]
C:\DevArea\libraries\fusion-c\lib\fusion_min_printf.lib
                                          [ waitkey.rel ]
C:\Program Files\SDCC\bin\..\lib\z80/z80.lib
                                          [ vprintf.rel ]
C:\DevArea\libraries\fusion-c\lib\fusion_min_printf.lib
                                          [ locate.rel ]
C:\DevArea\libraries\fusion-c\lib\fusion_min_printf.lib
                                          [ screen.rel ]
C:\Program Files\SDCC\bin\..\lib\z80/z80.lib
                                          [ divsigned.rel ]
C:\Program Files\SDCC\bin\..\lib\z80/z80.lib
                                          [ printf_large.rel ]
C:\Program Files\SDCC\bin\..\lib\z80/z80.lib
                                          [ divunsigned.rel ]
C:\Program Files\SDCC\bin\..\lib\z80/z80.lib
                                          [ __sdcc_call_hl.rel ]
C:\Program Files\SDCC\bin\..\lib\z80/z80.lib
                                          [ strlen.rel ]

ASxxxx Linker V03.00 + NoICE + sdld,  page 6.

User Base Address Definitions

_CODE = 0x4050
_DATA = 0xc000

